; Function Attrs: mustprogress nofree norecurse nosync nounwind memory(argmem: readwrite) uwtable
define void @_ZN5arrowngERKNS_15BasicDecimal256E(ptr dead_on_unwind noalias writable writeonly sret(%"class.arrow::BasicDecimal256") align 8 captures(none) %0, ptr noundef nonnull readonly align 8 captures(none) dereferenceable(32) %1) local_unnamed_addr #8 {
  %3 = alloca %"class.arrow::BasicDecimal256", align 8
  call void @llvm.lifetime.start.p0(i64 32, ptr nonnull %3) #15
  call void @llvm.memcpy.p0.p0.i64(ptr noundef nonnull align 8 dereferenceable(32) %3, ptr noundef nonnull align 8 dereferenceable(32) %1, i64 32, i1 false)
  br label %4

4:                                                ; preds = %4, %2
  %.010.i = phi i64 [ 1, %2 ], [ %11, %4 ]
  %.089.i = phi i64 [ 0, %2 ], [ %12, %4 ]
  %5 = getelementptr inbounds nuw [4 x i64], ptr %3, i64 0, i64 %.089.i
  %6 = load i64, ptr %5, align 8, !tbaa !7
  %7 = xor i64 %6, -1
  %8 = add i64 %.010.i, %7
  store i64 %8, ptr %5, align 8, !tbaa !7
  %9 = icmp eq i64 %8, 0
  %10 = and i64 %.010.i, 1
  %11 = select i1 %9, i64 %10, i64 0
  %12 = add nuw nsw i64 %.089.i, 1
  %exitcond.not.i = icmp eq i64 %12, 4
  br i1 %exitcond.not.i, label %_ZN5arrow15BasicDecimal2566NegateEv.exit, label %4, !llvm.loop !29

_ZN5arrow15BasicDecimal2566NegateEv.exit:         ; preds = %4
  call void @llvm.memcpy.p0.p0.i64(ptr noundef nonnull align 8 dereferenceable(32) %0, ptr noundef nonnull align 8 dereferenceable(32) %3, i64 32, i1 false)
  call void @llvm.lifetime.end.p0(i64 32, ptr nonnull %3) #15
  ret void
}